target datalayout = "e-m:e-p270:32:32-p271:32:32-p272:64:64-i64:64-i128:128-f80:128-n8:16:32:64-S128"
target triple = "x86_64-pc-linux-gnu"

%struct._gil_runtime_state = type { i64, ptr, i32, i64, %union.pthread_cond_t, %union.pthread_mutex_t, %union.pthread_cond_t, %union.pthread_mutex_t }
%union.pthread_cond_t = type { %struct.__pthread_cond_s }
%struct.__pthread_cond_s = type { %union.__atomic_wide_counter, %union.__atomic_wide_counter, [2 x i32], [2 x i32], i32, i32, [2 x i32] }
%union.__atomic_wide_counter = type { i64 }
%union.pthread_mutex_t = type { %struct.__pthread_mutex_s }
%struct.__pthread_mutex_s = type { i32, i32, i32, i32, i32, i16, i16, %struct.__pthread_internal_list }
%struct.__pthread_internal_list = type { ptr, ptr }

@__func__.create_gil = private unnamed_addr constant [11 x i8] c"create_gil\00", align 1
@.str.1 = private unnamed_addr constant [32 x i8] c"PyMUTEX_INIT(gil->mutex) failed\00", align 1
@.str.2 = private unnamed_addr constant [39 x i8] c"PyMUTEX_INIT(gil->switch_mutex) failed\00", align 1
@.str.3 = private unnamed_addr constant [30 x i8] c"PyCOND_INIT(gil->cond) failed\00", align 1
@.str.4 = private unnamed_addr constant [37 x i8] c"PyCOND_INIT(gil->switch_cond) failed\00", align 1

; Function Attrs: inlinehint nounwind uwtable
define internal void @_Py_atomic_store_int_release(ptr noundef %0, i32 noundef %1) #2 {
  %3 = alloca ptr, align 8
  %4 = alloca i32, align 4
  %5 = alloca i32, align 4
  store ptr %0, ptr %3, align 8, !tbaa !216
  store i32 %1, ptr %4, align 4, !tbaa !182
  %6 = load ptr, ptr %3, align 8, !tbaa !216
  %7 = load i32, ptr %4, align 4, !tbaa !182
  store i32 %7, ptr %5, align 4, !tbaa !182
  %8 = load i32, ptr %5, align 4
  store atomic i32 %8, ptr %6 release, align 4
  ret void
}

; Function Attrs: inlinehint nounwind uwtable
define internal void @_Py_atomic_store_ptr_relaxed(ptr noundef %0, ptr noundef %1) #2 {
  %3 = alloca ptr, align 8
  %4 = alloca ptr, align 8
  %5 = alloca ptr, align 8
  store ptr %0, ptr %3, align 8, !tbaa !198
  store ptr %1, ptr %4, align 8, !tbaa !198
  %6 = load ptr, ptr %3, align 8, !tbaa !198
  %7 = load ptr, ptr %4, align 8, !tbaa !198
  store ptr %7, ptr %5, align 8, !tbaa !198
  %8 = load i64, ptr %5, align 8
  store atomic i64 %8, ptr %6 monotonic, align 8
  ret void
}

; Function Attrs: nounwind uwtable
define internal void @create_gil(ptr noundef %0) #0 {
  %2 = alloca ptr, align 8
  store ptr %0, ptr %2, align 8, !tbaa !93
  %3 = load ptr, ptr %2, align 8, !tbaa !93
  %4 = getelementptr inbounds nuw %struct._gil_runtime_state, ptr %3, i32 0, i32 5
  %5 = call i32 @pthread_mutex_init(ptr noundef %4, ptr noundef null) #11
  %6 = icmp ne i32 %5, 0
  br i1 %6, label %7, label %8

7:                                                ; preds = %1
  call void @_Py_FatalErrorFunc(ptr noundef @__func__.create_gil, ptr noundef @.str.1) #12
  unreachable

8:                                                ; preds = %1
  %9 = load ptr, ptr %2, align 8, !tbaa !93
  %10 = getelementptr inbounds nuw %struct._gil_runtime_state, ptr %9, i32 0, i32 7
  %11 = call i32 @pthread_mutex_init(ptr noundef %10, ptr noundef null) #11
  %12 = icmp ne i32 %11, 0
  br i1 %12, label %13, label %14

13:                                               ; preds = %8
  call void @_Py_FatalErrorFunc(ptr noundef @__func__.create_gil, ptr noundef @.str.2) #12
  unreachable

14:                                               ; preds = %8
  %15 = load ptr, ptr %2, align 8, !tbaa !93
  %16 = getelementptr inbounds nuw %struct._gil_runtime_state, ptr %15, i32 0, i32 4
  %17 = call i32 @_PyThread_cond_init(ptr noundef %16)
  %18 = icmp ne i32 %17, 0
  br i1 %18, label %19, label %20

19:                                               ; preds = %14
  call void @_Py_FatalErrorFunc(ptr noundef @__func__.create_gil, ptr noundef @.str.3) #12
  unreachable

20:                                               ; preds = %14
  %21 = load ptr, ptr %2, align 8, !tbaa !93
  %22 = getelementptr inbounds nuw %struct._gil_runtime_state, ptr %21, i32 0, i32 6
  %23 = call i32 @_PyThread_cond_init(ptr noundef %22)
  %24 = icmp ne i32 %23, 0
  br i1 %24, label %25, label %26

25:                                               ; preds = %20
  call void @_Py_FatalErrorFunc(ptr noundef @__func__.create_gil, ptr noundef @.str.4) #12
  unreachable

26:                                               ; preds = %20
  %27 = load ptr, ptr %2, align 8, !tbaa !93
  %28 = getelementptr inbounds nuw %struct._gil_runtime_state, ptr %27, i32 0, i32 1
  call void @_Py_atomic_store_ptr_relaxed(ptr noundef %28, ptr noundef null)
  %29 = load ptr, ptr %2, align 8, !tbaa !93
  %30 = getelementptr inbounds nuw %struct._gil_runtime_state, ptr %29, i32 0, i32 2
  call void @_Py_atomic_store_int_release(ptr noundef %30, i32 noundef 0)
  ret void
}