; Function Attrs: nounwind uwtable
define internal fastcc void @create_gil(ptr noundef %0) unnamed_addr #4 {
  %2 = getelementptr inbounds nuw i8, ptr %0, i64 80
  %3 = tail call i32 @pthread_mutex_init(ptr noundef nonnull %2, ptr noundef null) #14
  %.not = icmp eq i32 %3, 0
  br i1 %.not, label %5, label %4

4:                                                ; preds = %1
  tail call void @_Py_FatalErrorFunc(ptr noundef nonnull @__func__.create_gil, ptr noundef nonnull @.str.1) #15
  unreachable

5:                                                ; preds = %1
  %6 = getelementptr inbounds nuw i8, ptr %0, i64 168
  %7 = tail call i32 @pthread_mutex_init(ptr noundef nonnull %6, ptr noundef null) #14
  %.not6 = icmp eq i32 %7, 0
  br i1 %.not6, label %9, label %8

8:                                                ; preds = %5
  tail call void @_Py_FatalErrorFunc(ptr noundef nonnull @__func__.create_gil, ptr noundef nonnull @.str.2) #15
  unreachable

9:                                                ; preds = %5
  %10 = getelementptr inbounds nuw i8, ptr %0, i64 32
  %11 = tail call i32 @_PyThread_cond_init(ptr noundef nonnull %10) #14
  %.not7 = icmp eq i32 %11, 0
  br i1 %.not7, label %13, label %12

12:                                               ; preds = %9
  tail call void @_Py_FatalErrorFunc(ptr noundef nonnull @__func__.create_gil, ptr noundef nonnull @.str.3) #15
  unreachable

13:                                               ; preds = %9
  %14 = getelementptr inbounds nuw i8, ptr %0, i64 120
  %15 = tail call i32 @_PyThread_cond_init(ptr noundef nonnull %14) #14
  %.not8 = icmp eq i32 %15, 0
  br i1 %.not8, label %17, label %16

16:                                               ; preds = %13
  tail call void @_Py_FatalErrorFunc(ptr noundef nonnull @__func__.create_gil, ptr noundef nonnull @.str.4) #15
  unreachable

17:                                               ; preds = %13
  %18 = getelementptr inbounds nuw i8, ptr %0, i64 8
  store atomic i64 0, ptr %18 monotonic, align 8
  %19 = getelementptr inbounds nuw i8, ptr %0, i64 16
  store atomic i32 0, ptr %19 release, align 4
  ret void
}